target datalayout = "e-m:e-p270:32:32-p271:32:32-p272:64:64-i64:64-i128:128-f80:128-n8:16:32:64-S128"
target triple = "x86_64-pc-linux-gnu"

@.str = private unnamed_addr constant [34 x i8] c"../openssl/crypto/ocsp/ocsp_vfy.c\00", align 1
@__func__.ocsp_verify_signer = private unnamed_addr constant [19 x i8] c"ocsp_verify_signer\00", align 1
@.str.1 = private unnamed_addr constant [17 x i8] c"Verify error: %s\00", align 1

; Function Attrs: nounwind uwtable
define internal i32 @ocsp_verify_signer(ptr noundef %0, i32 noundef %1, ptr noundef %2, i64 noundef %3, ptr noundef %4, ptr noundef %5) #0 {
  %7 = alloca i32, align 4
  %8 = alloca ptr, align 8
  %9 = alloca i32, align 4
  %10 = alloca ptr, align 8
  %11 = alloca i64, align 8
  %12 = alloca ptr, align 8
  %13 = alloca ptr, align 8
  %14 = alloca ptr, align 8
  %15 = alloca ptr, align 8
  %16 = alloca i32, align 4
  %17 = alloca i32, align 4
  %18 = alloca i32, align 4
  store ptr %0, ptr %8, align 8, !tbaa !16
  store i32 %1, ptr %9, align 4, !tbaa !14
  store ptr %2, ptr %10, align 8, !tbaa !10
  store i64 %3, ptr %11, align 8, !tbaa !12
  store ptr %4, ptr %12, align 8, !tbaa !8
  store ptr %5, ptr %13, align 8, !tbaa !68
  call void @llvm.lifetime.start.p0(i64 8, ptr %14) #5
  %19 = call ptr @X509_STORE_CTX_new()
  store ptr %19, ptr %14, align 8, !tbaa !70
  call void @llvm.lifetime.start.p0(i64 8, ptr %15) #5
  call void @llvm.lifetime.start.p0(i64 4, ptr %16) #5
  store i32 -1, ptr %16, align 4, !tbaa !14
  %20 = load ptr, ptr %14, align 8, !tbaa !70
  %21 = icmp eq ptr %20, null
  br i1 %21, label %22, label %23

22:                                               ; preds = %6
  call void @ERR_new()
  call void @ERR_set_debug(ptr noundef @.str, i32 noundef 39, ptr noundef @__func__.ocsp_verify_signer)
  call void (i32, i32, ptr, ...) @ERR_set_error(i32 noundef 39, i32 noundef 524299, ptr noundef null)
  br label %77

23:                                               ; preds = %6
  %24 = load ptr, ptr %14, align 8, !tbaa !70
  %25 = load ptr, ptr %10, align 8, !tbaa !10
  %26 = load ptr, ptr %8, align 8, !tbaa !16
  %27 = load ptr, ptr %12, align 8, !tbaa !8
  %28 = call i32 @X509_STORE_CTX_init(ptr noundef %24, ptr noundef %25, ptr noundef %26, ptr noundef %27)
  %29 = icmp ne i32 %28, 0
  br i1 %29, label %31, label %30

30:                                               ; preds = %23
  call void @ERR_new()
  call void @ERR_set_debug(ptr noundef @.str, i32 noundef 43, ptr noundef @__func__.ocsp_verify_signer)
  call void (i32, i32, ptr, ...) @ERR_set_error(i32 noundef 39, i32 noundef 524299, ptr noundef null)
  br label %77

31:                                               ; preds = %23
  %32 = load ptr, ptr %14, align 8, !tbaa !70
  %33 = call ptr @X509_STORE_CTX_get0_param(ptr noundef %32)
  store ptr %33, ptr %15, align 8, !tbaa !72
  %34 = icmp eq ptr %33, null
  br i1 %34, label %35, label %36

35:                                               ; preds = %31
  br label %77

36:                                               ; preds = %31
  %37 = load i64, ptr %11, align 8, !tbaa !12
  %38 = and i64 %37, 4096
  %39 = icmp ne i64 %38, 0
  br i1 %39, label %40, label %43

40:                                               ; preds = %36
  %41 = load ptr, ptr %15, align 8, !tbaa !72
  %42 = call i32 @X509_VERIFY_PARAM_set_flags(ptr noundef %41, i64 noundef 524288)
  br label %43

43:                                               ; preds = %40, %36
  %44 = load i32, ptr %9, align 4, !tbaa !14
  %45 = icmp ne i32 %44, 0
  br i1 %45, label %46, label %53

46:                                               ; preds = %43
  %47 = load ptr, ptr %8, align 8, !tbaa !16
  %48 = call i32 @X509_get_ext_by_NID(ptr noundef %47, i32 noundef 369, i32 noundef -1)
  %49 = icmp sge i32 %48, 0
  br i1 %49, label %50, label %53

50:                                               ; preds = %46
  %51 = load ptr, ptr %15, align 8, !tbaa !72
  %52 = call i32 @X509_VERIFY_PARAM_clear_flags(ptr noundef %51, i64 noundef 4)
  br label %53

53:                                               ; preds = %50, %46, %43
  %54 = load ptr, ptr %14, align 8, !tbaa !70
  %55 = call i32 @X509_STORE_CTX_set_purpose(ptr noundef %54, i32 noundef 8)
  %56 = load ptr, ptr %14, align 8, !tbaa !70
  %57 = call i32 @X509_STORE_CTX_set_trust(ptr noundef %56, i32 noundef 7)
  %58 = load ptr, ptr %14, align 8, !tbaa !70
  %59 = call i32 @X509_verify_cert(ptr noundef %58)
  store i32 %59, ptr %16, align 4, !tbaa !14
  %60 = load i32, ptr %16, align 4, !tbaa !14
  %61 = icmp sle i32 %60, 0
  br i1 %61, label %62, label %69

62:                                               ; preds = %53
  call void @llvm.lifetime.start.p0(i64 4, ptr %17) #5
  %63 = load ptr, ptr %14, align 8, !tbaa !70
  %64 = call i32 @X509_STORE_CTX_get_error(ptr noundef %63)
  store i32 %64, ptr %17, align 4, !tbaa !14
  call void @ERR_new()
  call void @ERR_set_debug(ptr noundef @.str, i32 noundef 64, ptr noundef @__func__.ocsp_verify_signer)
  %65 = load i32, ptr %17, align 4, !tbaa !14
  %66 = sext i32 %65 to i64
  %67 = call ptr @X509_verify_cert_error_string(i64 noundef %66)
  call void (i32, i32, ptr, ...) @ERR_set_error(i32 noundef 39, i32 noundef 101, ptr noundef @.str.1, ptr noundef %67)
  store i32 2, ptr %18, align 4
  call void @llvm.lifetime.end.p0(i64 4, ptr %17) #5
  %68 = load i32, ptr %18, align 4
  switch i32 %68, label %80 [
    i32 2, label %77
  ]

69:                                               ; preds = %53
  %70 = load ptr, ptr %13, align 8, !tbaa !68
  %71 = icmp ne ptr %70, null
  br i1 %71, label %72, label %76

72:                                               ; preds = %69
  %73 = load ptr, ptr %14, align 8, !tbaa !70
  %74 = call ptr @X509_STORE_CTX_get1_chain(ptr noundef %73)
  %75 = load ptr, ptr %13, align 8, !tbaa !68
  store ptr %74, ptr %75, align 8, !tbaa !8
  br label %76

76:                                               ; preds = %72, %69
  br label %77

77:                                               ; preds = %76, %62, %35, %30, %22
  %78 = load ptr, ptr %14, align 8, !tbaa !70
  call void @X509_STORE_CTX_free(ptr noundef %78)
  %79 = load i32, ptr %16, align 4, !tbaa !14
  store i32 %79, ptr %7, align 4
  store i32 1, ptr %18, align 4
  br label %80

80:                                               ; preds = %77, %62
  call void @llvm.lifetime.end.p0(i64 4, ptr %16) #5
  call void @llvm.lifetime.end.p0(i64 8, ptr %15) #5
  call void @llvm.lifetime.end.p0(i64 8, ptr %14) #5
  %81 = load i32, ptr %7, align 4
  ret i32 %81
}