; Function Attrs: nounwind uwtable
define internal fastcc i32 @ocsp_verify_signer(ptr noundef %0, i32 noundef range(i32 0, 2) %1, ptr noundef %2, i64 noundef %3, ptr noundef %4, ptr noundef writeonly captures(address_is_null) %5) unnamed_addr #0 {
  %7 = tail call ptr @X509_STORE_CTX_new() #4
  %8 = icmp eq ptr %7, null
  br i1 %8, label %9, label %10

9:                                                ; preds = %6
  tail call void @ERR_new() #4
  tail call void @ERR_set_debug(ptr noundef nonnull @.str, i32 noundef 39, ptr noundef nonnull @__func__.ocsp_verify_signer) #4
  tail call void (i32, i32, ptr, ...) @ERR_set_error(i32 noundef 39, i32 noundef 524299, ptr noundef null) #4
  br label %38

10:                                               ; preds = %6
  %11 = tail call i32 @X509_STORE_CTX_init(ptr noundef nonnull %7, ptr noundef %2, ptr noundef %0, ptr noundef %4) #4
  %.not = icmp eq i32 %11, 0
  br i1 %.not, label %12, label %13

12:                                               ; preds = %10
  tail call void @ERR_new() #4
  tail call void @ERR_set_debug(ptr noundef nonnull @.str, i32 noundef 43, ptr noundef nonnull @__func__.ocsp_verify_signer) #4
  tail call void (i32, i32, ptr, ...) @ERR_set_error(i32 noundef 39, i32 noundef 524299, ptr noundef null) #4
  br label %38

13:                                               ; preds = %10
  %14 = tail call ptr @X509_STORE_CTX_get0_param(ptr noundef nonnull %7) #4
  %15 = icmp eq ptr %14, null
  br i1 %15, label %38, label %16

16:                                               ; preds = %13
  %17 = and i64 %3, 4096
  %.not28 = icmp eq i64 %17, 0
  br i1 %.not28, label %20, label %18

18:                                               ; preds = %16
  %19 = tail call i32 @X509_VERIFY_PARAM_set_flags(ptr noundef nonnull %14, i64 noundef 524288) #4
  br label %20

20:                                               ; preds = %18, %16
  %.not29 = icmp eq i32 %1, 0
  br i1 %.not29, label %26, label %21

21:                                               ; preds = %20
  %22 = tail call i32 @X509_get_ext_by_NID(ptr noundef %0, i32 noundef 369, i32 noundef -1) #4
  %23 = icmp sgt i32 %22, -1
  br i1 %23, label %24, label %26

24:                                               ; preds = %21
  %25 = tail call i32 @X509_VERIFY_PARAM_clear_flags(ptr noundef nonnull %14, i64 noundef 4) #4
  br label %26

26:                                               ; preds = %24, %21, %20
  %27 = tail call i32 @X509_STORE_CTX_set_purpose(ptr noundef nonnull %7, i32 noundef 8) #4
  %28 = tail call i32 @X509_STORE_CTX_set_trust(ptr noundef nonnull %7, i32 noundef 7) #4
  %29 = tail call i32 @X509_verify_cert(ptr noundef nonnull %7) #4
  %30 = icmp slt i32 %29, 1
  br i1 %30, label %31, label %35

31:                                               ; preds = %26
  %32 = tail call i32 @X509_STORE_CTX_get_error(ptr noundef nonnull %7) #4
  tail call void @ERR_new() #4
  tail call void @ERR_set_debug(ptr noundef nonnull @.str, i32 noundef 64, ptr noundef nonnull @__func__.ocsp_verify_signer) #4
  %33 = sext i32 %32 to i64
  %34 = tail call ptr @X509_verify_cert_error_string(i64 noundef %33) #4
  tail call void (i32, i32, ptr, ...) @ERR_set_error(i32 noundef 39, i32 noundef 101, ptr noundef nonnull @.str.1, ptr noundef %34) #4
  br label %38

35:                                               ; preds = %26
  %.not30 = icmp eq ptr %5, null
  br i1 %.not30, label %38, label %36

36:                                               ; preds = %35
  %37 = tail call ptr @X509_STORE_CTX_get1_chain(ptr noundef nonnull %7) #4
  store ptr %37, ptr %5, align 8, !tbaa !3
  br label %38

38:                                               ; preds = %31, %35, %36, %13, %12, %9
  %.023 = phi i32 [ -1, %9 ], [ -1, %13 ], [ %29, %31 ], [ %29, %36 ], [ %29, %35 ], [ -1, %12 ]
  tail call void @X509_STORE_CTX_free(ptr noundef %7) #4
  ret i32 %.023
}